; Function Attrs: mustprogress uwtable
define void @_ZNK6casadi7Inverse10ad_reverseERKSt6vectorIS1_INS_2MXESaIS2_EESaIS4_EERS6_(ptr noundef nonnull align 8 dereferenceable(64) %0, ptr nocapture noundef nonnull readonly align 8 dereferenceable(24) %1, ptr nocapture noundef nonnull readonly align 8 dereferenceable(24) %2) unnamed_addr #3 align 2 personality ptr @__gxx_personality_v0 {
  %4 = alloca %"class.casadi::MX", align 8
  %5 = alloca %"class.casadi::MX", align 8
  %6 = alloca %"class.casadi::MX", align 8
  %7 = alloca %"class.casadi::MX", align 8
  %8 = alloca %"class.casadi::MX", align 8
  call void @_ZNK6casadi20SharedObjectInternal16shared_from_thisINS_2MXEEEKT_v(ptr dead_on_unwind nonnull writable sret(%"class.casadi::MX") align 8 %5, ptr noundef nonnull align 8 dereferenceable(24) %0)
  invoke void @_ZNK6casadi2MX1TEv(ptr dead_on_unwind nonnull writable sret(%"class.casadi::MX") align 8 %6, ptr noundef nonnull align 8 dereferenceable(8) %5)
          to label %.preheader unwind label %30

.preheader:                                       ; preds = %3
  %9 = getelementptr inbounds i8, ptr %1, i64 8
  %10 = load ptr, ptr %9, align 8
  %11 = load ptr, ptr %1, align 8
  %.not = icmp eq ptr %10, %11
  br i1 %.not, label %._crit_edge, label %.lr.ph

.lr.ph:                                           ; preds = %.preheader, %21
  %12 = phi ptr [ %24, %21 ], [ %11, %.preheader ]
  %.017 = phi i64 [ %22, %21 ], [ 0, %.preheader ]
  %13 = getelementptr inbounds %"class.std::vector", ptr %12, i64 %.017
  %14 = load ptr, ptr %13, align 8
  invoke void @_ZN6casadi2MX6mtimesERKS0_S2_(ptr dead_on_unwind nonnull writable sret(%"class.casadi::MX") align 8 %8, ptr noundef nonnull align 8 dereferenceable(8) %14, ptr noundef nonnull align 8 dereferenceable(8) %6)
          to label %_ZN6casadi6mtimesERKNS_2MXES2_.exit unwind label %32

_ZN6casadi6mtimesERKNS_2MXES2_.exit:              ; preds = %.lr.ph
  invoke void @_ZN6casadi2MX6mtimesERKS0_S2_(ptr dead_on_unwind nonnull writable sret(%"class.casadi::MX") align 8 %7, ptr noundef nonnull align 8 dereferenceable(8) %6, ptr noundef nonnull align 8 dereferenceable(8) %8)
          to label %_ZN6casadi6mtimesERKNS_2MXES2_.exit16 unwind label %34

_ZN6casadi6mtimesERKNS_2MXES2_.exit16:            ; preds = %_ZN6casadi6mtimesERKNS_2MXES2_.exit
  %15 = load ptr, ptr %2, align 8
  %16 = getelementptr inbounds %"class.std::vector", ptr %15, i64 %.017
  %17 = load ptr, ptr %16, align 8
  call void @llvm.lifetime.start.p0(i64 8, ptr nonnull %4)
  invoke void @_ZN6casadi2MX6binaryExRKS0_S2_(ptr dead_on_unwind nonnull writable sret(%"class.casadi::MX") align 8 %4, i64 noundef 2, ptr noundef nonnull align 8 dereferenceable(8) %17, ptr noundef nonnull align 8 dereferenceable(8) %7)
          to label %.noexc unwind label %36

.noexc:                                           ; preds = %_ZN6casadi6mtimesERKNS_2MXES2_.exit16
  %18 = invoke noundef nonnull align 8 dereferenceable(8) ptr @_ZN6casadi12SharedObjectaSERKS0_(ptr noundef nonnull align 8 dereferenceable(8) %17, ptr noundef nonnull align 8 dereferenceable(8) %4)
          to label %21 unwind label %19

19:                                               ; preds = %.noexc
  %20 = landingpad { ptr, i32 }
          cleanup
  call void @_ZN6casadi2MXD1Ev(ptr noundef nonnull align 8 dereferenceable(8) %4) #12
  br label %.body

21:                                               ; preds = %.noexc
  call void @_ZN6casadi2MXD1Ev(ptr noundef nonnull align 8 dereferenceable(8) %4) #12
  call void @llvm.lifetime.end.p0(i64 8, ptr nonnull %4)
  call void @_ZN6casadi2MXD1Ev(ptr noundef nonnull align 8 dereferenceable(8) %7) #12
  call void @_ZN6casadi2MXD1Ev(ptr noundef nonnull align 8 dereferenceable(8) %8) #12
  %22 = add nuw nsw i64 %.017, 1
  %23 = load ptr, ptr %9, align 8
  %24 = load ptr, ptr %1, align 8
  %25 = ptrtoint ptr %23 to i64
  %26 = ptrtoint ptr %24 to i64
  %27 = sub i64 %25, %26
  %28 = sdiv exact i64 %27, 24
  %29 = icmp ult i64 %22, %28
  br i1 %29, label %.lr.ph, label %._crit_edge, !llvm.loop !13

30:                                               ; preds = %3
  %31 = landingpad { ptr, i32 }
          cleanup
  br label %40

32:                                               ; preds = %.lr.ph
  %33 = landingpad { ptr, i32 }
          cleanup
  br label %39

34:                                               ; preds = %_ZN6casadi6mtimesERKNS_2MXES2_.exit
  %35 = landingpad { ptr, i32 }
          cleanup
  br label %38

36:                                               ; preds = %_ZN6casadi6mtimesERKNS_2MXES2_.exit16
  %37 = landingpad { ptr, i32 }
          cleanup
  br label %.body

.body:                                            ; preds = %19, %36
  %eh.lpad-body = phi { ptr, i32 } [ %37, %36 ], [ %20, %19 ]
  call void @_ZN6casadi2MXD1Ev(ptr noundef nonnull align 8 dereferenceable(8) %7) #12
  br label %38

38:                                               ; preds = %.body, %34
  %.pn = phi { ptr, i32 } [ %eh.lpad-body, %.body ], [ %35, %34 ]
  call void @_ZN6casadi2MXD1Ev(ptr noundef nonnull align 8 dereferenceable(8) %8) #12
  br label %39

._crit_edge:                                      ; preds = %21, %.preheader
  call void @_ZN6casadi2MXD1Ev(ptr noundef nonnull align 8 dereferenceable(8) %6) #12
  call void @_ZN6casadi2MXD1Ev(ptr noundef nonnull align 8 dereferenceable(8) %5) #12
  ret void

39:                                               ; preds = %38, %32
  %.pn.pn = phi { ptr, i32 } [ %.pn, %38 ], [ %33, %32 ]
  call void @_ZN6casadi2MXD1Ev(ptr noundef nonnull align 8 dereferenceable(8) %6) #12
  br label %40

40:                                               ; preds = %39, %30
  %.pn.pn.pn = phi { ptr, i32 } [ %.pn.pn, %39 ], [ %31, %30 ]
  call void @_ZN6casadi2MXD1Ev(ptr noundef nonnull align 8 dereferenceable(8) %5) #12
  resume { ptr, i32 } %.pn.pn.pn
}